target datalayout = "e-m:e-p270:32:32-p271:32:32-p272:64:64-i64:64-i128:128-f80:128-n8:16:32:64-S128"
target triple = "x86_64-pc-linux-gnu"

%class.MultiNode.base = type { %class.Node.base }
%class.Node.base = type <{ ptr, ptr, ptr, i32, i32, i32, i32, i32, i32, i32 }>
%class.Node = type <{ ptr, ptr, ptr, i32, i32, i32, i32, i32, i32, i32, [4 x i8] }>
%class.ReplacedNodes = type { ptr }
%class.CallNode = type { %class.SafePointNode.base, ptr, ptr, float, ptr, ptr }
%class.SafePointNode.base = type <{ %class.MultiNode.base, [4 x i8], ptr, ptr, %class.ReplacedNodes, i8 }>
%class.GrowableArrayBase = type { i32, i32 }
%class.AbstractLockNode = type <{ %class.CallNode, i32, [4 x i8] }>

; Function Attrs: mustprogress nounwind uwtable
define linkonce_odr hidden noundef zeroext i1 @_ZNK16AbstractLockNode13is_eliminatedEv(ptr noundef nonnull align 8 dereferenceable(132) %0) #1 comdat align 2 {
  %2 = alloca ptr, align 8
  store ptr %0, ptr %2, align 8
  %3 = load ptr, ptr %2, align 8
  %4 = getelementptr inbounds %class.AbstractLockNode, ptr %3, i32 0, i32 1
  %5 = load i32, ptr %4, align 8
  %6 = icmp ne i32 %5, 0
  ret i1 %6
}

; Function Attrs: mustprogress nounwind uwtable
define linkonce_odr hidden noundef ptr @_ZNK4Node15as_AbstractLockEv(ptr noundef nonnull align 8 dereferenceable(52) %0) #1 comdat align 2 {
  %2 = alloca ptr, align 8
  store ptr %0, ptr %2, align 8
  %3 = load ptr, ptr %2, align 8
  ret ptr %3
}

; Function Attrs: mustprogress nounwind uwtable
define linkonce_odr hidden noundef zeroext i1 @_ZNK4Node15is_AbstractLockEv(ptr noundef nonnull align 8 dereferenceable(52) %0) #1 comdat align 2 {
  %2 = alloca ptr, align 8
  store ptr %0, ptr %2, align 8
  %3 = load ptr, ptr %2, align 8
  %4 = getelementptr inbounds %class.Node, ptr %3, i32 0, i32 8
  %5 = load i32, ptr %4, align 4
  %6 = and i32 %5, 127
  %7 = icmp eq i32 %6, 71
  ret i1 %7
}

; Function Attrs: mustprogress nounwind uwtable
define linkonce_odr hidden noundef zeroext i1 @_ZNK4Node7is_ProjEv(ptr noundef nonnull align 8 dereferenceable(52) %0) #1 comdat align 2 {
  %2 = alloca ptr, align 8
  store ptr %0, ptr %2, align 8
  %3 = load ptr, ptr %2, align 8
  %4 = getelementptr inbounds %class.Node, ptr %3, i32 0, i32 8
  %5 = load i32, ptr %4, align 4
  %6 = and i32 %5, 15
  %7 = icmp eq i32 %6, 8
  ret i1 %7
}

; Function Attrs: mustprogress nounwind uwtable
define linkonce_odr hidden noundef ptr @_ZNK10RegionNode7is_copyEv(ptr noundef nonnull align 8 dereferenceable(60) %0) #1 comdat align 2 {
  %2 = alloca ptr, align 8
  %3 = alloca ptr, align 8
  %4 = alloca ptr, align 8
  store ptr %0, ptr %3, align 8
  %5 = load ptr, ptr %3, align 8
  %6 = getelementptr inbounds %class.Node, ptr %5, i32 0, i32 1
  %7 = load ptr, ptr %6, align 8
  %8 = getelementptr inbounds ptr, ptr %7, i64 0
  %9 = load ptr, ptr %8, align 8
  store ptr %9, ptr %4, align 8
  %10 = load ptr, ptr %4, align 8
  %11 = icmp eq ptr %10, null
  br i1 %11, label %12, label %14

12:                                               ; preds = %1
  %13 = call noundef ptr @_ZNK4Node11nonnull_reqEv(ptr noundef nonnull align 8 dereferenceable(52) %5)
  store ptr %13, ptr %2, align 8
  br label %15

14:                                               ; preds = %1
  store ptr null, ptr %2, align 8
  br label %15

15:                                               ; preds = %14, %12
  %16 = load ptr, ptr %2, align 8
  ret ptr %16
}

; Function Attrs: mustprogress nounwind uwtable
define linkonce_odr hidden noundef ptr @_ZNK4Node9as_RegionEv(ptr noundef nonnull align 8 dereferenceable(52) %0) #1 comdat align 2 {
  %2 = alloca ptr, align 8
  store ptr %0, ptr %2, align 8
  %3 = load ptr, ptr %2, align 8
  ret ptr %3
}

; Function Attrs: mustprogress nounwind uwtable
define linkonce_odr hidden noundef zeroext i1 @_ZNK4Node9is_RegionEv(ptr noundef nonnull align 8 dereferenceable(52) %0) #1 comdat align 2 {
  %2 = alloca ptr, align 8
  store ptr %0, ptr %2, align 8
  %3 = load ptr, ptr %2, align 8
  %4 = getelementptr inbounds %class.Node, ptr %3, i32 0, i32 8
  %5 = load i32, ptr %4, align 4
  %6 = and i32 %5, 63
  %7 = icmp eq i32 %6, 32
  ret i1 %7
}

; Function Attrs: mustprogress nounwind uwtable
define linkonce_odr hidden void @_ZN17GrowableArrayBase8trunc_toEi(ptr noundef nonnull align 4 dereferenceable(8) %0, i32 noundef %1) #1 comdat align 2 {
  %3 = alloca ptr, align 8
  %4 = alloca i32, align 4
  store ptr %0, ptr %3, align 8
  store i32 %1, ptr %4, align 4
  %5 = load ptr, ptr %3, align 8
  %6 = load i32, ptr %4, align 4
  %7 = getelementptr inbounds %class.GrowableArrayBase, ptr %5, i32 0, i32 0
  store i32 %6, ptr %7, align 4
  ret void
}

; Function Attrs: mustprogress nounwind uwtable
define internal noundef ptr @_ZL12next_controlP4Node(ptr noundef %0) #1 {
  %2 = alloca ptr, align 8
  %3 = alloca ptr, align 8
  %4 = alloca ptr, align 8
  %5 = alloca ptr, align 8
  %6 = alloca ptr, align 8
  store ptr %0, ptr %3, align 8
  %7 = load ptr, ptr %3, align 8
  %8 = icmp eq ptr %7, null
  br i1 %8, label %9, label %10

9:                                                ; preds = %1
  store ptr null, ptr %2, align 8
  br label %47

10:                                               ; preds = %1
  br label %11

11:                                               ; preds = %44, %10
  %12 = load ptr, ptr %3, align 8
  %13 = call noundef zeroext i1 @_ZNK4Node9is_RegionEv(ptr noundef nonnull align 8 dereferenceable(52) %12)
  br i1 %13, label %14, label %25

14:                                               ; preds = %11
  %15 = load ptr, ptr %3, align 8
  %16 = call noundef ptr @_ZNK4Node9as_RegionEv(ptr noundef nonnull align 8 dereferenceable(52) %15)
  store ptr %16, ptr %4, align 8
  %17 = load ptr, ptr %4, align 8
  %18 = call noundef ptr @_ZNK10RegionNode7is_copyEv(ptr noundef nonnull align 8 dereferenceable(60) %17)
  store ptr %18, ptr %5, align 8
  %19 = load ptr, ptr %5, align 8
  %20 = icmp eq ptr %19, null
  br i1 %20, label %21, label %22

21:                                               ; preds = %14
  br label %45

22:                                               ; preds = %14
  %23 = load ptr, ptr %5, align 8
  store ptr %23, ptr %3, align 8
  br label %24

24:                                               ; preds = %22
  br label %44

25:                                               ; preds = %11
  %26 = load ptr, ptr %3, align 8
  %27 = call noundef zeroext i1 @_ZNK4Node7is_ProjEv(ptr noundef nonnull align 8 dereferenceable(52) %26)
  br i1 %27, label %28, label %42

28:                                               ; preds = %25
  %29 = load ptr, ptr %3, align 8
  %30 = call noundef ptr @_ZNK4Node2inEj(ptr noundef nonnull align 8 dereferenceable(52) %29, i32 noundef 0)
  store ptr %30, ptr %6, align 8
  %31 = load ptr, ptr %6, align 8
  %32 = call noundef zeroext i1 @_ZNK4Node15is_AbstractLockEv(ptr noundef nonnull align 8 dereferenceable(52) %31)
  br i1 %32, label %33, label %40

33:                                               ; preds = %28
  %34 = load ptr, ptr %6, align 8
  %35 = call noundef ptr @_ZNK4Node15as_AbstractLockEv(ptr noundef nonnull align 8 dereferenceable(52) %34)
  %36 = call noundef zeroext i1 @_ZNK16AbstractLockNode13is_eliminatedEv(ptr noundef nonnull align 8 dereferenceable(132) %35)
  br i1 %36, label %37, label %40

37:                                               ; preds = %33
  %38 = load ptr, ptr %6, align 8
  %39 = call noundef ptr @_ZNK4Node2inEj(ptr noundef nonnull align 8 dereferenceable(52) %38, i32 noundef 0)
  store ptr %39, ptr %3, align 8
  br label %41

40:                                               ; preds = %33, %28
  br label %45

41:                                               ; preds = %37
  br label %43

42:                                               ; preds = %25
  br label %45

43:                                               ; preds = %41
  br label %44

44:                                               ; preds = %43, %24
  br label %11, !llvm.loop !28

45:                                               ; preds = %42, %40, %21
  %46 = load ptr, ptr %3, align 8
  store ptr %46, ptr %2, align 8
  br label %47

47:                                               ; preds = %45, %9
  %48 = load ptr, ptr %2, align 8
  ret ptr %48
}

; Function Attrs: mustprogress nounwind uwtable
define linkonce_odr hidden noundef ptr @_ZNK4Node2inEj(ptr noundef nonnull align 8 dereferenceable(52) %0, i32 noundef %1) #1 comdat align 2 {
  %3 = alloca ptr, align 8
  %4 = alloca i32, align 4
  store ptr %0, ptr %3, align 8
  store i32 %1, ptr %4, align 4
  %5 = load ptr, ptr %3, align 8
  %6 = getelementptr inbounds %class.Node, ptr %5, i32 0, i32 1
  %7 = load ptr, ptr %6, align 8
  %8 = load i32, ptr %4, align 4
  %9 = zext i32 %8 to i64
  %10 = getelementptr inbounds ptr, ptr %7, i64 %9
  %11 = load ptr, ptr %10, align 8
  ret ptr %11
}

; Function Attrs: mustprogress nounwind uwtable
define linkonce_odr hidden noundef i32 @_ZNK4Node3reqEv(ptr noundef nonnull align 8 dereferenceable(52) %0) #1 comdat align 2 {
  %2 = alloca ptr, align 8
  store ptr %0, ptr %2, align 8
  %3 = load ptr, ptr %2, align 8
  %4 = getelementptr inbounds %class.Node, ptr %3, i32 0, i32 3
  %5 = load i32, ptr %4, align 8
  ret i32 %5
}

; Function Attrs: mustprogress nounwind uwtable
define hidden noundef zeroext i1 @_ZN16AbstractLockNode23find_unlocks_for_regionEPK10RegionNodeP8LockNodeR13GrowableArrayIPS_E(ptr noundef nonnull align 8 dereferenceable(132) %0, ptr noundef %1, ptr noundef %2, ptr noundef nonnull align 8 dereferenceable(24) %3) #1 align 2 {
  %5 = alloca i1, align 1
  %6 = alloca ptr, align 8
  %7 = alloca ptr, align 8
  %8 = alloca ptr, align 8
  %9 = alloca ptr, align 8
  %10 = alloca i32, align 4
  %11 = alloca ptr, align 8
  store ptr %0, ptr %6, align 8
  store ptr %1, ptr %7, align 8
  store ptr %2, ptr %8, align 8
  store ptr %3, ptr %9, align 8
  %12 = load ptr, ptr %6, align 8
  store i32 1, ptr %10, align 4
  br label %13

13:                                               ; preds = %41, %4
  %14 = load i32, ptr %10, align 4
  %15 = load ptr, ptr %7, align 8
  %16 = call noundef i32 @_ZNK4Node3reqEv(ptr noundef nonnull align 8 dereferenceable(52) %15)
  %17 = icmp slt i32 %14, %16
  br i1 %17, label %18, label %44

18:                                               ; preds = %13
  %19 = load ptr, ptr %7, align 8
  %20 = load i32, ptr %10, align 4
  %21 = call noundef ptr @_ZNK4Node2inEj(ptr noundef nonnull align 8 dereferenceable(52) %19, i32 noundef %20)
  %22 = call noundef ptr @_ZL12next_controlP4Node(ptr noundef %21)
  store ptr %22, ptr %11, align 8
  %23 = load ptr, ptr %11, align 8
  %24 = icmp ne ptr %23, null
  br i1 %24, label %25, label %40

25:                                               ; preds = %18
  %26 = load ptr, ptr %11, align 8
  %27 = load ptr, ptr %8, align 8
  %28 = load ptr, ptr %9, align 8
  %29 = call noundef zeroext i1 @_ZN16AbstractLockNode20find_matching_unlockEPK4NodeP8LockNodeR13GrowableArrayIPS_E(ptr noundef nonnull align 8 dereferenceable(132) %12, ptr noundef %26, ptr noundef %27, ptr noundef nonnull align 8 dereferenceable(24) %28)
  br i1 %29, label %30, label %31

30:                                               ; preds = %25
  br label %41

31:                                               ; preds = %25
  %32 = load ptr, ptr %11, align 8
  %33 = load ptr, ptr %8, align 8
  %34 = load ptr, ptr %9, align 8
  %35 = call noundef zeroext i1 @_ZN16AbstractLockNode31find_lock_and_unlock_through_ifEP4NodeP8LockNodeR13GrowableArrayIPS_E(ptr noundef nonnull align 8 dereferenceable(132) %12, ptr noundef %32, ptr noundef %33, ptr noundef nonnull align 8 dereferenceable(24) %34)
  br i1 %35, label %36, label %37

36:                                               ; preds = %31
  br label %41

37:                                               ; preds = %31
  br label %38

38:                                               ; preds = %37
  %39 = load ptr, ptr %9, align 8
  call void @_ZN17GrowableArrayBase8trunc_toEi(ptr noundef nonnull align 4 dereferenceable(8) %39, i32 noundef 0)
  store i1 false, ptr %5, align 1
  br label %45

40:                                               ; preds = %18
  br label %41

41:                                               ; preds = %40, %36, %30
  %42 = load i32, ptr %10, align 4
  %43 = add nsw i32 %42, 1
  store i32 %43, ptr %10, align 4
  br label %13, !llvm.loop !29

44:                                               ; preds = %13
  store i1 true, ptr %5, align 1
  br label %45

45:                                               ; preds = %44, %38
  %46 = load i1, ptr %5, align 1
  ret i1 %46
}