; Function Attrs: mustprogress nounwind uwtable
define hidden noundef zeroext i1 @_ZN16AbstractLockNode23find_unlocks_for_regionEPK10RegionNodeP8LockNodeR13GrowableArrayIPS_E(ptr nocapture nonnull readnone align 8 %0, ptr nocapture noundef readonly %1, ptr nocapture noundef readonly %2, ptr noundef nonnull align 8 dereferenceable(24) %3) local_unnamed_addr #2 align 2 {
  %5 = getelementptr inbounds i8, ptr %1, i64 24
  %6 = load i32, ptr %5, align 8
  %7 = icmp slt i32 %6, 2
  br i1 %7, label %.loopexit, label %.lr.ph

.lr.ph:                                           ; preds = %4
  %8 = getelementptr inbounds i8, ptr %1, i64 8
  br label %9

9:                                                ; preds = %.lr.ph, %_ZL12next_controlP4Node.exit
  %indvars.iv = phi i64 [ 1, %.lr.ph ], [ %indvars.iv.next, %_ZL12next_controlP4Node.exit ]
  %10 = load ptr, ptr %8, align 8
  %11 = getelementptr inbounds ptr, ptr %10, i64 %indvars.iv
  %12 = load ptr, ptr %11, align 8
  %13 = icmp eq ptr %12, null
  br i1 %13, label %_ZL12next_controlP4Node.exit, label %.preheader.i

.preheader.i:                                     ; preds = %9, %.preheader.i.backedge
  %.013.i = phi ptr [ %.013.i.be, %.preheader.i.backedge ], [ %12, %9 ]
  %14 = getelementptr inbounds i8, ptr %.013.i, i64 44
  %15 = load i32, ptr %14, align 4
  %16 = and i32 %15, 63
  %17 = icmp eq i32 %16, 32
  br i1 %17, label %18, label %25

18:                                               ; preds = %.preheader.i
  %19 = getelementptr inbounds i8, ptr %.013.i, i64 8
  %20 = load ptr, ptr %19, align 8
  %21 = load ptr, ptr %20, align 8
  %22 = icmp eq ptr %21, null
  br i1 %22, label %_ZNK10RegionNode7is_copyEv.exit.i, label %43

_ZNK10RegionNode7is_copyEv.exit.i:                ; preds = %18
  %23 = tail call noundef ptr @_ZNK4Node11nonnull_reqEv(ptr noundef nonnull align 8 dereferenceable(52) %.013.i) #15
  %24 = icmp eq ptr %23, null
  br i1 %24, label %43, label %.preheader.i.backedge

25:                                               ; preds = %.preheader.i
  %26 = and i32 %15, 15
  %27 = icmp eq i32 %26, 8
  br i1 %27, label %28, label %43

28:                                               ; preds = %25
  %29 = getelementptr inbounds i8, ptr %.013.i, i64 8
  %30 = load ptr, ptr %29, align 8
  %31 = load ptr, ptr %30, align 8
  %32 = getelementptr inbounds i8, ptr %31, i64 44
  %33 = load i32, ptr %32, align 4
  %34 = and i32 %33, 127
  %35 = icmp eq i32 %34, 71
  br i1 %35, label %36, label %43

36:                                               ; preds = %28
  %37 = getelementptr inbounds i8, ptr %31, i64 128
  %38 = load i32, ptr %37, align 8
  %.not.i = icmp eq i32 %38, 0
  br i1 %.not.i, label %43, label %39

39:                                               ; preds = %36
  %40 = getelementptr inbounds i8, ptr %31, i64 8
  %41 = load ptr, ptr %40, align 8
  %42 = load ptr, ptr %41, align 8
  br label %.preheader.i.backedge

.preheader.i.backedge:                            ; preds = %39, %_ZNK10RegionNode7is_copyEv.exit.i
  %.013.i.be = phi ptr [ %42, %39 ], [ %23, %_ZNK10RegionNode7is_copyEv.exit.i ]
  br label %.preheader.i, !llvm.loop !29

43:                                               ; preds = %25, %28, %36, %_ZNK10RegionNode7is_copyEv.exit.i, %18
  %44 = tail call noundef zeroext i1 @_ZN16AbstractLockNode20find_matching_unlockEPK4NodeP8LockNodeR13GrowableArrayIPS_E(ptr nonnull align 8 poison, ptr noundef nonnull %.013.i, ptr noundef %2, ptr noundef nonnull align 8 dereferenceable(24) %3)
  br i1 %44, label %_ZL12next_controlP4Node.exit, label %45

45:                                               ; preds = %43
  %46 = tail call noundef zeroext i1 @_ZN16AbstractLockNode31find_lock_and_unlock_through_ifEP4NodeP8LockNodeR13GrowableArrayIPS_E(ptr nonnull align 8 poison, ptr noundef nonnull %.013.i, ptr noundef %2, ptr noundef nonnull align 8 dereferenceable(24) %3)
  br i1 %46, label %_ZL12next_controlP4Node.exit, label %47

47:                                               ; preds = %45
  store i32 0, ptr %3, align 8
  br label %.loopexit

_ZL12next_controlP4Node.exit:                     ; preds = %9, %45, %43
  %indvars.iv.next = add nuw nsw i64 %indvars.iv, 1
  %48 = load i32, ptr %5, align 8
  %49 = sext i32 %48 to i64
  %.not = icmp slt i64 %indvars.iv.next, %49
  br i1 %.not, label %9, label %.loopexit, !llvm.loop !31

.loopexit:                                        ; preds = %_ZL12next_controlP4Node.exit, %4, %47
  %50 = phi i1 [ false, %47 ], [ true, %4 ], [ true, %_ZL12next_controlP4Node.exit ]
  ret i1 %50
}